target datalayout = "e-m:e-p270:32:32-p271:32:32-p272:64:64-i64:64-i128:128-f80:128-n8:16:32:64-S128"
target triple = "x86_64-pc-linux-gnu"

%struct.H5MF_debug_iter_ud_t = type { ptr, ptr, i32, i32 }
%struct.H5MF_free_section_t = type { %struct.H5FS_section_info_t }
%struct.H5FS_section_info_t = type { i64, i64, i32, i32 }

@.str = private unnamed_addr constant [101 x i8] c"generated/home/dtcxzyw/WorkSpace/Projects/compilers/llvm-opt-benchmark/bench/hdf5/hdf5/src/H5MFdbg.c\00", align 1
@H5E_RESOURCE_g = external global i64, align 8
@H5E_BADITER_g = external global i64, align 8
@.str.4 = private unnamed_addr constant [12 x i8] c"%*s%-*s %s\0A\00", align 1
@.str.5 = private unnamed_addr constant [1 x i8] zeroinitializer, align 1
@.str.6 = private unnamed_addr constant [14 x i8] c"Section type:\00", align 1
@.str.7 = private unnamed_addr constant [7 x i8] c"simple\00", align 1
@.str.8 = private unnamed_addr constant [6 x i8] c"small\00", align 1
@.str.9 = private unnamed_addr constant [6 x i8] c"large\00", align 1
@.str.10 = private unnamed_addr constant [8 x i8] c"unknown\00", align 1
@.str.11 = private unnamed_addr constant [13 x i8] c"%*s%-*s %lu\0A\00", align 1
@.str.12 = private unnamed_addr constant [17 x i8] c"Section address:\00", align 1
@.str.13 = private unnamed_addr constant [14 x i8] c"Section size:\00", align 1
@.str.14 = private unnamed_addr constant [16 x i8] c"End of section:\00", align 1
@.str.15 = private unnamed_addr constant [15 x i8] c"Section state:\00", align 1
@.str.16 = private unnamed_addr constant [5 x i8] c"live\00", align 1
@.str.17 = private unnamed_addr constant [11 x i8] c"serialized\00", align 1
@__func__.H5MF__sects_debug_cb = private unnamed_addr constant [21 x i8] c"H5MF__sects_debug_cb\00", align 1
@.str.18 = private unnamed_addr constant [36 x i8] c"can't dump section's debugging info\00", align 1

; Function Attrs: nounwind uwtable
define internal i32 @H5MF__sects_debug_cb(ptr noundef %0, ptr noundef %1) #0 {
  %3 = alloca ptr, align 8
  %4 = alloca ptr, align 8
  %5 = alloca ptr, align 8
  %6 = alloca ptr, align 8
  %7 = alloca i32, align 4
  %8 = alloca i8, align 1
  store ptr %0, ptr %3, align 8
  store ptr %1, ptr %4, align 8
  %9 = load ptr, ptr %3, align 8
  store ptr %9, ptr %5, align 8
  %10 = load ptr, ptr %4, align 8
  store ptr %10, ptr %6, align 8
  store i32 0, ptr %7, align 4
  store i8 0, ptr %8, align 1
  %11 = load ptr, ptr %6, align 8
  %12 = getelementptr inbounds %struct.H5MF_debug_iter_ud_t, ptr %11, i32 0, i32 1
  %13 = load ptr, ptr %12, align 8
  %14 = load ptr, ptr %6, align 8
  %15 = getelementptr inbounds %struct.H5MF_debug_iter_ud_t, ptr %14, i32 0, i32 2
  %16 = load i32, ptr %15, align 8
  %17 = load ptr, ptr %6, align 8
  %18 = getelementptr inbounds %struct.H5MF_debug_iter_ud_t, ptr %17, i32 0, i32 3
  %19 = load i32, ptr %18, align 4
  %20 = load ptr, ptr %5, align 8
  %21 = getelementptr inbounds %struct.H5MF_free_section_t, ptr %20, i32 0, i32 0
  %22 = getelementptr inbounds %struct.H5FS_section_info_t, ptr %21, i32 0, i32 2
  %23 = load i32, ptr %22, align 8
  %24 = icmp eq i32 %23, 0
  br i1 %24, label %25, label %26

25:                                               ; preds = %2
  br label %42

26:                                               ; preds = %2
  %27 = load ptr, ptr %5, align 8
  %28 = getelementptr inbounds %struct.H5MF_free_section_t, ptr %27, i32 0, i32 0
  %29 = getelementptr inbounds %struct.H5FS_section_info_t, ptr %28, i32 0, i32 2
  %30 = load i32, ptr %29, align 8
  %31 = icmp eq i32 %30, 1
  br i1 %31, label %32, label %33

32:                                               ; preds = %26
  br label %40

33:                                               ; preds = %26
  %34 = load ptr, ptr %5, align 8
  %35 = getelementptr inbounds %struct.H5MF_free_section_t, ptr %34, i32 0, i32 0
  %36 = getelementptr inbounds %struct.H5FS_section_info_t, ptr %35, i32 0, i32 2
  %37 = load i32, ptr %36, align 8
  %38 = icmp eq i32 %37, 2
  %39 = select i1 %38, ptr @.str.9, ptr @.str.10
  br label %40

40:                                               ; preds = %33, %32
  %41 = phi ptr [ @.str.8, %32 ], [ %39, %33 ]
  br label %42

42:                                               ; preds = %40, %25
  %43 = phi ptr [ @.str.7, %25 ], [ %41, %40 ]
  %44 = call i32 (ptr, ptr, ...) @fprintf(ptr noundef %13, ptr noundef @.str.4, i32 noundef %16, ptr noundef @.str.5, i32 noundef %19, ptr noundef @.str.6, ptr noundef %43) #3
  %45 = load ptr, ptr %6, align 8
  %46 = getelementptr inbounds %struct.H5MF_debug_iter_ud_t, ptr %45, i32 0, i32 1
  %47 = load ptr, ptr %46, align 8
  %48 = load ptr, ptr %6, align 8
  %49 = getelementptr inbounds %struct.H5MF_debug_iter_ud_t, ptr %48, i32 0, i32 2
  %50 = load i32, ptr %49, align 8
  %51 = load ptr, ptr %6, align 8
  %52 = getelementptr inbounds %struct.H5MF_debug_iter_ud_t, ptr %51, i32 0, i32 3
  %53 = load i32, ptr %52, align 4
  %54 = load ptr, ptr %5, align 8
  %55 = getelementptr inbounds %struct.H5MF_free_section_t, ptr %54, i32 0, i32 0
  %56 = getelementptr inbounds %struct.H5FS_section_info_t, ptr %55, i32 0, i32 0
  %57 = load i64, ptr %56, align 8
  %58 = call i32 (ptr, ptr, ...) @fprintf(ptr noundef %47, ptr noundef @.str.11, i32 noundef %50, ptr noundef @.str.5, i32 noundef %53, ptr noundef @.str.12, i64 noundef %57) #3
  %59 = load ptr, ptr %6, align 8
  %60 = getelementptr inbounds %struct.H5MF_debug_iter_ud_t, ptr %59, i32 0, i32 1
  %61 = load ptr, ptr %60, align 8
  %62 = load ptr, ptr %6, align 8
  %63 = getelementptr inbounds %struct.H5MF_debug_iter_ud_t, ptr %62, i32 0, i32 2
  %64 = load i32, ptr %63, align 8
  %65 = load ptr, ptr %6, align 8
  %66 = getelementptr inbounds %struct.H5MF_debug_iter_ud_t, ptr %65, i32 0, i32 3
  %67 = load i32, ptr %66, align 4
  %68 = load ptr, ptr %5, align 8
  %69 = getelementptr inbounds %struct.H5MF_free_section_t, ptr %68, i32 0, i32 0
  %70 = getelementptr inbounds %struct.H5FS_section_info_t, ptr %69, i32 0, i32 1
  %71 = load i64, ptr %70, align 8
  %72 = call i32 (ptr, ptr, ...) @fprintf(ptr noundef %61, ptr noundef @.str.11, i32 noundef %64, ptr noundef @.str.5, i32 noundef %67, ptr noundef @.str.13, i64 noundef %71) #3
  %73 = load ptr, ptr %6, align 8
  %74 = getelementptr inbounds %struct.H5MF_debug_iter_ud_t, ptr %73, i32 0, i32 1
  %75 = load ptr, ptr %74, align 8
  %76 = load ptr, ptr %6, align 8
  %77 = getelementptr inbounds %struct.H5MF_debug_iter_ud_t, ptr %76, i32 0, i32 2
  %78 = load i32, ptr %77, align 8
  %79 = load ptr, ptr %6, align 8
  %80 = getelementptr inbounds %struct.H5MF_debug_iter_ud_t, ptr %79, i32 0, i32 3
  %81 = load i32, ptr %80, align 4
  %82 = load ptr, ptr %5, align 8
  %83 = getelementptr inbounds %struct.H5MF_free_section_t, ptr %82, i32 0, i32 0
  %84 = getelementptr inbounds %struct.H5FS_section_info_t, ptr %83, i32 0, i32 0
  %85 = load i64, ptr %84, align 8
  %86 = load ptr, ptr %5, align 8
  %87 = getelementptr inbounds %struct.H5MF_free_section_t, ptr %86, i32 0, i32 0
  %88 = getelementptr inbounds %struct.H5FS_section_info_t, ptr %87, i32 0, i32 1
  %89 = load i64, ptr %88, align 8
  %90 = add i64 %85, %89
  %91 = sub i64 %90, 1
  %92 = call i32 (ptr, ptr, ...) @fprintf(ptr noundef %75, ptr noundef @.str.11, i32 noundef %78, ptr noundef @.str.5, i32 noundef %81, ptr noundef @.str.14, i64 noundef %91) #3
  %93 = load ptr, ptr %6, align 8
  %94 = getelementptr inbounds %struct.H5MF_debug_iter_ud_t, ptr %93, i32 0, i32 1
  %95 = load ptr, ptr %94, align 8
  %96 = load ptr, ptr %6, align 8
  %97 = getelementptr inbounds %struct.H5MF_debug_iter_ud_t, ptr %96, i32 0, i32 2
  %98 = load i32, ptr %97, align 8
  %99 = load ptr, ptr %6, align 8
  %100 = getelementptr inbounds %struct.H5MF_debug_iter_ud_t, ptr %99, i32 0, i32 3
  %101 = load i32, ptr %100, align 4
  %102 = load ptr, ptr %5, align 8
  %103 = getelementptr inbounds %struct.H5MF_free_section_t, ptr %102, i32 0, i32 0
  %104 = getelementptr inbounds %struct.H5FS_section_info_t, ptr %103, i32 0, i32 3
  %105 = load i32, ptr %104, align 4
  %106 = icmp eq i32 %105, 0
  %107 = select i1 %106, ptr @.str.16, ptr @.str.17
  %108 = call i32 (ptr, ptr, ...) @fprintf(ptr noundef %95, ptr noundef @.str.4, i32 noundef %98, ptr noundef @.str.5, i32 noundef %101, ptr noundef @.str.15, ptr noundef %107) #3
  %109 = load ptr, ptr %6, align 8
  %110 = getelementptr inbounds %struct.H5MF_debug_iter_ud_t, ptr %109, i32 0, i32 0
  %111 = load ptr, ptr %110, align 8
  %112 = load ptr, ptr %3, align 8
  %113 = load ptr, ptr %6, align 8
  %114 = getelementptr inbounds %struct.H5MF_debug_iter_ud_t, ptr %113, i32 0, i32 1
  %115 = load ptr, ptr %114, align 8
  %116 = load ptr, ptr %6, align 8
  %117 = getelementptr inbounds %struct.H5MF_debug_iter_ud_t, ptr %116, i32 0, i32 2
  %118 = load i32, ptr %117, align 8
  %119 = add nsw i32 %118, 3
  %120 = load ptr, ptr %6, align 8
  %121 = getelementptr inbounds %struct.H5MF_debug_iter_ud_t, ptr %120, i32 0, i32 3
  %122 = load i32, ptr %121, align 4
  %123 = sub nsw i32 %122, 3
  %124 = icmp sgt i32 0, %123
  br i1 %124, label %125, label %126

125:                                              ; preds = %42
  br label %131

126:                                              ; preds = %42
  %127 = load ptr, ptr %6, align 8
  %128 = getelementptr inbounds %struct.H5MF_debug_iter_ud_t, ptr %127, i32 0, i32 3
  %129 = load i32, ptr %128, align 4
  %130 = sub nsw i32 %129, 3
  br label %131

131:                                              ; preds = %126, %125
  %132 = phi i32 [ 0, %125 ], [ %130, %126 ]
  %133 = call i32 @H5FS_sect_debug(ptr noundef %111, ptr noundef %112, ptr noundef %115, i32 noundef %119, i32 noundef %132)
  %134 = icmp slt i32 %133, 0
  br i1 %134, label %135, label %150

135:                                              ; preds = %131
  br label %136

136:                                              ; preds = %135
  br label %137

137:                                              ; preds = %136
  br label %138

138:                                              ; preds = %137
  %139 = load i64, ptr @H5E_RESOURCE_g, align 8
  %140 = load i64, ptr @H5E_BADITER_g, align 8
  %141 = call i32 (ptr, ptr, i32, i64, i64, ptr, ...) @H5E_printf_stack(ptr noundef @.str, ptr noundef @__func__.H5MF__sects_debug_cb, i32 noundef 119, i64 noundef %139, i64 noundef %140, ptr noundef @.str.18)
  br label %142

142:                                              ; preds = %138
  store i8 1, ptr %8, align 1
  %143 = load i8, ptr %8, align 1
  %144 = trunc i8 %143 to i1
  %145 = zext i1 %144 to i8
  store i8 %145, ptr %8, align 1
  br label %146

146:                                              ; preds = %142
  br label %147

147:                                              ; preds = %146
  store i32 -1, ptr %7, align 4
  br label %151

148:                                              ; No predecessors!
  br label %149

149:                                              ; preds = %148
  br label %150

150:                                              ; preds = %149, %131
  br label %151

151:                                              ; preds = %150, %147
  %152 = load i32, ptr %7, align 4
  ret i32 %152
}