; Function Attrs: nounwind uwtable
define internal range(i32 -1, 1) i32 @H5MF__sects_debug_cb(ptr noundef %0, ptr nocapture noundef readonly %1) #0 {
  %3 = getelementptr inbounds i8, ptr %1, i64 8
  %4 = load ptr, ptr %3, align 8
  %5 = getelementptr inbounds i8, ptr %1, i64 16
  %6 = load i32, ptr %5, align 8
  %7 = getelementptr inbounds i8, ptr %1, i64 20
  %8 = load i32, ptr %7, align 4
  %9 = getelementptr inbounds i8, ptr %0, i64 16
  %10 = load i32, ptr %9, align 8
  switch i32 %10, label %11 [
    i32 0, label %14
    i32 1, label %.fold.split
  ]

11:                                               ; preds = %2
  %12 = icmp eq i32 %10, 2
  %13 = select i1 %12, ptr @.str.9, ptr @.str.10
  br label %14

.fold.split:                                      ; preds = %2
  br label %14

14:                                               ; preds = %2, %.fold.split, %11
  %15 = phi ptr [ @.str.7, %2 ], [ %13, %11 ], [ @.str.8, %.fold.split ]
  %16 = tail call i32 (ptr, ptr, ...) @fprintf(ptr noundef %4, ptr noundef nonnull @.str.4, i32 noundef %6, ptr noundef nonnull @.str.5, i32 noundef %8, ptr noundef nonnull @.str.6, ptr noundef nonnull %15) #3
  %17 = load ptr, ptr %3, align 8
  %18 = load i32, ptr %5, align 8
  %19 = load i32, ptr %7, align 4
  %20 = load i64, ptr %0, align 8
  %21 = tail call i32 (ptr, ptr, ...) @fprintf(ptr noundef %17, ptr noundef nonnull @.str.11, i32 noundef %18, ptr noundef nonnull @.str.5, i32 noundef %19, ptr noundef nonnull @.str.12, i64 noundef %20) #3
  %22 = load ptr, ptr %3, align 8
  %23 = load i32, ptr %5, align 8
  %24 = load i32, ptr %7, align 4
  %25 = getelementptr inbounds i8, ptr %0, i64 8
  %26 = load i64, ptr %25, align 8
  %27 = tail call i32 (ptr, ptr, ...) @fprintf(ptr noundef %22, ptr noundef nonnull @.str.11, i32 noundef %23, ptr noundef nonnull @.str.5, i32 noundef %24, ptr noundef nonnull @.str.13, i64 noundef %26) #3
  %28 = load ptr, ptr %3, align 8
  %29 = load i32, ptr %5, align 8
  %30 = load i32, ptr %7, align 4
  %31 = load i64, ptr %0, align 8
  %32 = load i64, ptr %25, align 8
  %33 = add i64 %31, -1
  %34 = add i64 %33, %32
  %35 = tail call i32 (ptr, ptr, ...) @fprintf(ptr noundef %28, ptr noundef nonnull @.str.11, i32 noundef %29, ptr noundef nonnull @.str.5, i32 noundef %30, ptr noundef nonnull @.str.14, i64 noundef %34) #3
  %36 = load ptr, ptr %3, align 8
  %37 = load i32, ptr %5, align 8
  %38 = load i32, ptr %7, align 4
  %39 = getelementptr inbounds i8, ptr %0, i64 20
  %40 = load i32, ptr %39, align 4
  %41 = icmp eq i32 %40, 0
  %42 = select i1 %41, ptr @.str.16, ptr @.str.17
  %43 = tail call i32 (ptr, ptr, ...) @fprintf(ptr noundef %36, ptr noundef nonnull @.str.4, i32 noundef %37, ptr noundef nonnull @.str.5, i32 noundef %38, ptr noundef nonnull @.str.15, ptr noundef nonnull %42) #3
  %44 = load ptr, ptr %1, align 8
  %45 = load ptr, ptr %3, align 8
  %46 = load i32, ptr %5, align 8
  %47 = add nsw i32 %46, 3
  %48 = load i32, ptr %7, align 4
  %49 = icmp slt i32 %48, 3
  %50 = add nsw i32 %48, -3
  %spec.select = select i1 %49, i32 0, i32 %50
  %51 = tail call i32 @H5FS_sect_debug(ptr noundef %44, ptr noundef nonnull %0, ptr noundef %45, i32 noundef %47, i32 noundef %spec.select) #3
  %52 = icmp slt i32 %51, 0
  br i1 %52, label %53, label %57

53:                                               ; preds = %14
  %54 = load i64, ptr @H5E_RESOURCE_g, align 8
  %55 = load i64, ptr @H5E_BADITER_g, align 8
  %56 = tail call i32 (ptr, ptr, i32, i64, i64, ptr, ...) @H5E_printf_stack(ptr noundef nonnull @.str, ptr noundef nonnull @__func__.H5MF__sects_debug_cb, i32 noundef 119, i64 noundef %54, i64 noundef %55, ptr noundef nonnull @.str.18) #3
  br label %57

57:                                               ; preds = %14, %53
  %.0 = phi i32 [ -1, %53 ], [ 0, %14 ]
  ret i32 %.0
}